target datalayout = "e-m:e-p270:32:32-p271:32:32-p272:64:64-i64:64-i128:128-f80:128-n8:16:32:64-S128"
target triple = "x86_64-pc-linux-gnu"

%struct._php_stream = type { ptr, ptr, %struct._php_stream_filter_chain, %struct._php_stream_filter_chain, ptr, ptr, %struct._zval_struct, i16, [16 x i8], i32, ptr, ptr, ptr, ptr, i64, ptr, i64, i64, i64, i64, ptr }
%struct._php_stream_filter_chain = type { ptr, ptr, ptr }
%struct._zval_struct = type { %union._zend_value, %union.anon, %union.anon.2 }
%union._zend_value = type { i64 }
%union.anon = type { i32 }
%union.anon.2 = type { i32 }
%struct._zend_string = type { %struct._zend_refcounted_h, i64, i64, [1 x i8] }
%struct._zend_refcounted_h = type { i32, %union.anon.3 }
%union.anon.3 = type { i32 }
%struct.php_stdio_stream_data = type { ptr, i32, i32, i32, ptr, ptr, i64, %struct.stat }
%struct.stat = type { i64, i64, i64, i32, i32, i32, i32, i64, i64, i64, i64, %struct.timespec, %struct.timespec, %struct.timespec, [3 x i64] }
%struct.timespec = type { i64, i64 }

; Function Attrs: alwaysinline nounwind uwtable
define internal i32 @zend_gc_delref(ptr noundef %0) #7 {
  %2 = alloca ptr, align 8
  store ptr %0, ptr %2, align 8, !tbaa !68
  %3 = load ptr, ptr %2, align 8, !tbaa !68
  %4 = getelementptr inbounds nuw %struct._zend_refcounted_h, ptr %3, i32 0, i32 0
  %5 = load i32, ptr %4, align 4, !tbaa !70
  %6 = icmp ugt i32 %5, 0
  call void @llvm.assume(i1 %6)
  br label %7

7:                                                ; preds = %1
  br label %8

8:                                                ; preds = %7
  %9 = load ptr, ptr %2, align 8, !tbaa !68
  %10 = getelementptr inbounds nuw %struct._zend_refcounted_h, ptr %9, i32 0, i32 0
  %11 = load i32, ptr %10, align 4, !tbaa !70
  %12 = add i32 %11, -1
  store i32 %12, ptr %10, align 4, !tbaa !70
  ret i32 %12
}

; Function Attrs: alwaysinline nounwind uwtable
define internal i32 @zval_gc_flags(i32 noundef %0) #7 {
  %2 = alloca i32, align 4
  store i32 %0, ptr %2, align 4, !tbaa !12
  %3 = load i32, ptr %2, align 4, !tbaa !12
  %4 = lshr i32 %3, 0
  %5 = and i32 %4, 1008
  ret i32 %5
}

; Function Attrs: alwaysinline nounwind uwtable
define internal void @zend_string_release_ex(ptr noundef %0, i1 noundef zeroext %1) #7 {
  %3 = alloca ptr, align 8
  %4 = alloca i8, align 1
  store ptr %0, ptr %3, align 8, !tbaa !16
  %5 = zext i1 %1 to i8
  store i8 %5, ptr %4, align 1, !tbaa !44
  %6 = load ptr, ptr %3, align 8, !tbaa !16
  %7 = getelementptr inbounds nuw %struct._zend_string, ptr %6, i32 0, i32 0
  %8 = getelementptr inbounds nuw %struct._zend_refcounted_h, ptr %7, i32 0, i32 1
  %9 = load i32, ptr %8, align 4, !tbaa !11
  %10 = call i32 @zval_gc_flags(i32 noundef %9)
  %11 = and i32 %10, 64
  %12 = icmp ne i32 %11, 0
  br i1 %12, label %27, label %13

13:                                               ; preds = %2
  %14 = load ptr, ptr %3, align 8, !tbaa !16
  %15 = getelementptr inbounds nuw %struct._zend_string, ptr %14, i32 0, i32 0
  %16 = call i32 @zend_gc_delref(ptr noundef %15)
  %17 = icmp eq i32 %16, 0
  br i1 %17, label %18, label %26

18:                                               ; preds = %13
  %19 = load i8, ptr %4, align 1, !tbaa !44, !range !48, !noundef !49
  %20 = trunc i8 %19 to i1
  br i1 %20, label %21, label %23

21:                                               ; preds = %18
  %22 = load ptr, ptr %3, align 8, !tbaa !16
  call void @free(ptr noundef %22) #13
  br label %25

23:                                               ; preds = %18
  %24 = load ptr, ptr %3, align 8, !tbaa !16
  call void @_efree(ptr noundef %24)
  br label %25

25:                                               ; preds = %23, %21
  br label %26

26:                                               ; preds = %25, %13
  br label %27

27:                                               ; preds = %26, %2
  ret void
}

; Function Attrs: nounwind uwtable
define internal i32 @php_stdiop_close(ptr noundef %0, i32 noundef %1) #0 {
  %3 = alloca i32, align 4
  %4 = alloca ptr, align 8
  %5 = alloca i32, align 4
  %6 = alloca i32, align 4
  %7 = alloca ptr, align 8
  %8 = alloca i32, align 4
  store ptr %0, ptr %4, align 8, !tbaa !18
  store i32 %1, ptr %5, align 4, !tbaa !12
  call void @llvm.lifetime.start.p0(i64 4, ptr %6) #13
  call void @llvm.lifetime.start.p0(i64 8, ptr %7) #13
  %9 = load ptr, ptr %4, align 8, !tbaa !18
  %10 = getelementptr inbounds nuw %struct._php_stream, ptr %9, i32 0, i32 1
  %11 = load ptr, ptr %10, align 8, !tbaa !20
  store ptr %11, ptr %7, align 8, !tbaa !31
  %12 = load ptr, ptr %7, align 8, !tbaa !31
  %13 = getelementptr inbounds nuw %struct.php_stdio_stream_data, ptr %12, i32 0, i32 5
  %14 = load ptr, ptr %13, align 8, !tbaa !53
  %15 = icmp ne ptr %14, null
  br i1 %15, label %16, label %26

16:                                               ; preds = %2
  %17 = load ptr, ptr %7, align 8, !tbaa !31
  %18 = getelementptr inbounds nuw %struct.php_stdio_stream_data, ptr %17, i32 0, i32 5
  %19 = load ptr, ptr %18, align 8, !tbaa !53
  %20 = load ptr, ptr %7, align 8, !tbaa !31
  %21 = getelementptr inbounds nuw %struct.php_stdio_stream_data, ptr %20, i32 0, i32 6
  %22 = load i64, ptr %21, align 8, !tbaa !54
  %23 = call i32 @munmap(ptr noundef %19, i64 noundef %22) #13
  %24 = load ptr, ptr %7, align 8, !tbaa !31
  %25 = getelementptr inbounds nuw %struct.php_stdio_stream_data, ptr %24, i32 0, i32 5
  store ptr null, ptr %25, align 8, !tbaa !53
  br label %26

26:                                               ; preds = %16, %2
  %27 = load i32, ptr %5, align 4, !tbaa !12
  %28 = icmp ne i32 %27, 0
  br i1 %28, label %29, label %94

29:                                               ; preds = %26
  %30 = load ptr, ptr %7, align 8, !tbaa !31
  %31 = getelementptr inbounds nuw %struct.php_stdio_stream_data, ptr %30, i32 0, i32 0
  %32 = load ptr, ptr %31, align 8, !tbaa !42
  %33 = icmp ne ptr %32, null
  br i1 %33, label %34, label %62

34:                                               ; preds = %29
  %35 = load ptr, ptr %7, align 8, !tbaa !31
  %36 = getelementptr inbounds nuw %struct.php_stdio_stream_data, ptr %35, i32 0, i32 2
  %37 = load i32, ptr %36, align 4
  %38 = and i32 %37, 1
  %39 = icmp ne i32 %38, 0
  br i1 %39, label %40, label %54

40:                                               ; preds = %34
  %41 = call ptr @__errno_location() #16
  store i32 0, ptr %41, align 4, !tbaa !12
  %42 = load ptr, ptr %7, align 8, !tbaa !31
  %43 = getelementptr inbounds nuw %struct.php_stdio_stream_data, ptr %42, i32 0, i32 0
  %44 = load ptr, ptr %43, align 8, !tbaa !42
  %45 = call i32 @pclose(ptr noundef %44)
  store i32 %45, ptr %6, align 4, !tbaa !12
  %46 = load i32, ptr %6, align 4, !tbaa !12
  %47 = and i32 %46, 127
  %48 = icmp eq i32 %47, 0
  br i1 %48, label %49, label %53

49:                                               ; preds = %40
  %50 = load i32, ptr %6, align 4, !tbaa !12
  %51 = and i32 %50, 65280
  %52 = ashr i32 %51, 8
  store i32 %52, ptr %6, align 4, !tbaa !12
  br label %53

53:                                               ; preds = %49, %40
  br label %61

54:                                               ; preds = %34
  %55 = load ptr, ptr %7, align 8, !tbaa !31
  %56 = getelementptr inbounds nuw %struct.php_stdio_stream_data, ptr %55, i32 0, i32 0
  %57 = load ptr, ptr %56, align 8, !tbaa !42
  %58 = call i32 @fclose(ptr noundef %57)
  store i32 %58, ptr %6, align 4, !tbaa !12
  %59 = load ptr, ptr %7, align 8, !tbaa !31
  %60 = getelementptr inbounds nuw %struct.php_stdio_stream_data, ptr %59, i32 0, i32 0
  store ptr null, ptr %60, align 8, !tbaa !42
  br label %61

61:                                               ; preds = %54, %53
  br label %76

62:                                               ; preds = %29
  %63 = load ptr, ptr %7, align 8, !tbaa !31
  %64 = getelementptr inbounds nuw %struct.php_stdio_stream_data, ptr %63, i32 0, i32 1
  %65 = load i32, ptr %64, align 8, !tbaa !43
  %66 = icmp ne i32 %65, -1
  br i1 %66, label %67, label %74

67:                                               ; preds = %62
  %68 = load ptr, ptr %7, align 8, !tbaa !31
  %69 = getelementptr inbounds nuw %struct.php_stdio_stream_data, ptr %68, i32 0, i32 1
  %70 = load i32, ptr %69, align 8, !tbaa !43
  %71 = call i32 @close(i32 noundef %70)
  store i32 %71, ptr %6, align 4, !tbaa !12
  %72 = load ptr, ptr %7, align 8, !tbaa !31
  %73 = getelementptr inbounds nuw %struct.php_stdio_stream_data, ptr %72, i32 0, i32 1
  store i32 -1, ptr %73, align 8, !tbaa !43
  br label %75

74:                                               ; preds = %62
  store i32 0, ptr %3, align 4
  store i32 1, ptr %8, align 4
  br label %112

75:                                               ; preds = %67
  br label %76

76:                                               ; preds = %75, %61
  %77 = load ptr, ptr %7, align 8, !tbaa !31
  %78 = getelementptr inbounds nuw %struct.php_stdio_stream_data, ptr %77, i32 0, i32 4
  %79 = load ptr, ptr %78, align 8, !tbaa !37
  %80 = icmp ne ptr %79, null
  br i1 %80, label %81, label %93

81:                                               ; preds = %76
  %82 = load ptr, ptr %7, align 8, !tbaa !31
  %83 = getelementptr inbounds nuw %struct.php_stdio_stream_data, ptr %82, i32 0, i32 4
  %84 = load ptr, ptr %83, align 8, !tbaa !37
  %85 = getelementptr inbounds nuw %struct._zend_string, ptr %84, i32 0, i32 3
  %86 = getelementptr inbounds [1 x i8], ptr %85, i64 0, i64 0
  %87 = call i32 @unlink(ptr noundef %86) #13
  %88 = load ptr, ptr %7, align 8, !tbaa !31
  %89 = getelementptr inbounds nuw %struct.php_stdio_stream_data, ptr %88, i32 0, i32 4
  %90 = load ptr, ptr %89, align 8, !tbaa !37
  call void @zend_string_release_ex(ptr noundef %90, i1 noundef zeroext false)
  %91 = load ptr, ptr %7, align 8, !tbaa !31
  %92 = getelementptr inbounds nuw %struct.php_stdio_stream_data, ptr %91, i32 0, i32 4
  store ptr null, ptr %92, align 8, !tbaa !37
  br label %93

93:                                               ; preds = %81, %76
  br label %99

94:                                               ; preds = %26
  store i32 0, ptr %6, align 4, !tbaa !12
  %95 = load ptr, ptr %7, align 8, !tbaa !31
  %96 = getelementptr inbounds nuw %struct.php_stdio_stream_data, ptr %95, i32 0, i32 0
  store ptr null, ptr %96, align 8, !tbaa !42
  %97 = load ptr, ptr %7, align 8, !tbaa !31
  %98 = getelementptr inbounds nuw %struct.php_stdio_stream_data, ptr %97, i32 0, i32 1
  store i32 -1, ptr %98, align 8, !tbaa !43
  br label %99

99:                                               ; preds = %94, %93
  %100 = load ptr, ptr %4, align 8, !tbaa !18
  %101 = getelementptr inbounds nuw %struct._php_stream, ptr %100, i32 0, i32 7
  %102 = load i16, ptr %101, align 8
  %103 = and i16 %102, 1
  %104 = zext i16 %103 to i32
  %105 = icmp ne i32 %104, 0
  br i1 %105, label %106, label %108

106:                                              ; preds = %99
  %107 = load ptr, ptr %7, align 8, !tbaa !31
  call void @free(ptr noundef %107) #13
  br label %110

108:                                              ; preds = %99
  %109 = load ptr, ptr %7, align 8, !tbaa !31
  call void @_efree(ptr noundef %109)
  br label %110

110:                                              ; preds = %108, %106
  %111 = load i32, ptr %6, align 4, !tbaa !12
  store i32 %111, ptr %3, align 4
  store i32 1, ptr %8, align 4
  br label %112

112:                                              ; preds = %110, %74
  call void @llvm.lifetime.end.p0(i64 8, ptr %7) #13
  call void @llvm.lifetime.end.p0(i64 4, ptr %6) #13
  %113 = load i32, ptr %3, align 4
  ret i32 %113
}