; Function Attrs: nounwind uwtable
define internal i32 @php_stdiop_close(ptr noundef readonly captures(none) %0, i32 noundef %1) #3 {
  %3 = getelementptr inbounds nuw i8, ptr %0, i64 8
  %4 = load ptr, ptr %3, align 8, !tbaa !20
  %5 = getelementptr inbounds nuw i8, ptr %4, i64 32
  %6 = load ptr, ptr %5, align 8, !tbaa !40
  %.not = icmp eq ptr %6, null
  br i1 %.not, label %11, label %7

7:                                                ; preds = %2
  %8 = getelementptr inbounds nuw i8, ptr %4, i64 40
  %9 = load i64, ptr %8, align 8, !tbaa !41
  %10 = tail call i32 @munmap(ptr noundef nonnull %6, i64 noundef %9) #17
  store ptr null, ptr %5, align 8, !tbaa !40
  br label %11

11:                                               ; preds = %7, %2
  %.not31 = icmp eq i32 %1, 0
  br i1 %.not31, label %49, label %12

12:                                               ; preds = %11
  %13 = load ptr, ptr %4, align 8, !tbaa !36
  %.not32 = icmp eq ptr %13, null
  br i1 %.not32, label %28, label %14

14:                                               ; preds = %12
  %15 = getelementptr inbounds nuw i8, ptr %4, i64 12
  %16 = load i32, ptr %15, align 4
  %17 = and i32 %16, 1
  %.not34 = icmp eq i32 %17, 0
  br i1 %.not34, label %26, label %18

18:                                               ; preds = %14
  %19 = tail call ptr @__errno_location() #19
  store i32 0, ptr %19, align 4, !tbaa !7
  %20 = tail call i32 @pclose(ptr noundef nonnull %13)
  %21 = and i32 %20, 127
  %22 = icmp eq i32 %21, 0
  br i1 %22, label %23, label %33

23:                                               ; preds = %18
  %24 = lshr i32 %20, 8
  %25 = and i32 %24, 255
  br label %33

26:                                               ; preds = %14
  %27 = tail call i32 @fclose(ptr noundef nonnull %13)
  store ptr null, ptr %4, align 8, !tbaa !36
  br label %33

28:                                               ; preds = %12
  %29 = getelementptr inbounds nuw i8, ptr %4, i64 8
  %30 = load i32, ptr %29, align 8, !tbaa !19
  %.not33 = icmp eq i32 %30, -1
  br i1 %.not33, label %57, label %31

31:                                               ; preds = %28
  %32 = tail call i32 @close(i32 noundef %30) #17
  store i32 -1, ptr %29, align 8, !tbaa !19
  br label %33

33:                                               ; preds = %26, %23, %18, %31
  %.026 = phi i32 [ %25, %23 ], [ %20, %18 ], [ %27, %26 ], [ %32, %31 ]
  %34 = getelementptr inbounds nuw i8, ptr %4, i64 24
  %35 = load ptr, ptr %34, align 8, !tbaa !35
  %.not35 = icmp eq ptr %35, null
  br i1 %.not35, label %51, label %36

36:                                               ; preds = %33
  %37 = getelementptr inbounds nuw i8, ptr %35, i64 24
  %38 = tail call i32 @unlink(ptr noundef nonnull %37) #17
  %39 = load ptr, ptr %34, align 8, !tbaa !35
  %40 = getelementptr inbounds nuw i8, ptr %39, i64 4
  %41 = load i32, ptr %40, align 4, !tbaa !4
  %42 = and i32 %41, 64
  %.not.i = icmp eq i32 %42, 0
  br i1 %.not.i, label %43, label %zend_string_release_ex.exit

43:                                               ; preds = %36
  %44 = load i32, ptr %39, align 4, !tbaa !42
  %45 = icmp ne i32 %44, 0
  tail call void @llvm.assume(i1 %45)
  %46 = add i32 %44, -1
  store i32 %46, ptr %39, align 4, !tbaa !42
  %47 = icmp eq i32 %46, 0
  br i1 %47, label %48, label %zend_string_release_ex.exit

48:                                               ; preds = %43
  tail call void @_efree(ptr noundef nonnull %39) #17
  br label %zend_string_release_ex.exit

zend_string_release_ex.exit:                      ; preds = %36, %43, %48
  store ptr null, ptr %34, align 8, !tbaa !35
  br label %51

49:                                               ; preds = %11
  store ptr null, ptr %4, align 8, !tbaa !36
  %50 = getelementptr inbounds nuw i8, ptr %4, i64 8
  store i32 -1, ptr %50, align 8, !tbaa !19
  br label %51

51:                                               ; preds = %33, %zend_string_release_ex.exit, %49
  %.1 = phi i32 [ %.026, %zend_string_release_ex.exit ], [ %.026, %33 ], [ 0, %49 ]
  %52 = getelementptr inbounds nuw i8, ptr %0, i64 96
  %53 = load i16, ptr %52, align 8
  %54 = and i16 %53, 1
  %.not36 = icmp eq i16 %54, 0
  br i1 %.not36, label %56, label %55

55:                                               ; preds = %51
  tail call void @free(ptr noundef nonnull %4) #17
  br label %57

56:                                               ; preds = %51
  tail call void @_efree(ptr noundef nonnull %4) #17
  br label %57

57:                                               ; preds = %55, %56, %28
  %.0 = phi i32 [ 0, %28 ], [ %.1, %56 ], [ %.1, %55 ]
  ret i32 %.0
}